target datalayout = "e-m:e-p270:32:32-p271:32:32-p272:64:64-i64:64-i128:128-f80:128-n8:16:32:64-S128"
target triple = "x86_64-pc-linux-gnu"

; Function Attrs: nounwind uwtable
define internal i32 @dissect_IODWriteRes(ptr noundef %0, i32 noundef %1, ptr noundef %2, ptr noundef %3, ptr noundef %4) #0 {
  %6 = alloca ptr, align 8
  %7 = alloca i32, align 4
  %8 = alloca ptr, align 8
  %9 = alloca ptr, align 8
  %10 = alloca ptr, align 8
  %11 = alloca i16, align 2
  %12 = alloca i32, align 4
  %13 = alloca ptr, align 8
  store ptr %0, ptr %6, align 8
  store i32 %1, ptr %7, align 4
  store ptr %2, ptr %8, align 8
  store ptr %3, ptr %9, align 8
  store ptr %4, ptr %10, align 8
  store i16 0, ptr %11, align 2
  store ptr null, ptr %13, align 8
  %14 = load ptr, ptr %6, align 8
  %15 = load i32, ptr %7, align 4
  %16 = load ptr, ptr %8, align 8
  %17 = load ptr, ptr %9, align 8
  %18 = load ptr, ptr %10, align 8
  %19 = call i32 @dissect_block(ptr noundef %14, i32 noundef %15, ptr noundef %16, ptr noundef %17, ptr noundef %18, ptr noundef %11, ptr noundef %12, ptr noundef %13)
  store i32 %19, ptr %7, align 4
  %20 = load i16, ptr %11, align 2
  %21 = zext i16 %20 to i32
  %22 = icmp eq i32 %21, 57408
  br i1 %22, label %23, label %37

23:                                               ; preds = %5
  br label %24

24:                                               ; preds = %29, %23
  %25 = load ptr, ptr %6, align 8
  %26 = load i32, ptr %7, align 4
  %27 = call i32 @tvb_captured_length_remaining(ptr noundef %25, i32 noundef %26)
  %28 = icmp sgt i32 %27, 0
  br i1 %28, label %29, label %36

29:                                               ; preds = %24
  %30 = load ptr, ptr %6, align 8
  %31 = load i32, ptr %7, align 4
  %32 = load ptr, ptr %8, align 8
  %33 = load ptr, ptr %9, align 8
  %34 = load ptr, ptr %10, align 8
  %35 = call i32 @dissect_block(ptr noundef %30, i32 noundef %31, ptr noundef %32, ptr noundef %33, ptr noundef %34, ptr noundef %11, ptr noundef %12, ptr noundef %13)
  store i32 %35, ptr %7, align 4
  br label %24, !llvm.loop !7

36:                                               ; preds = %24
  br label %37

37:                                               ; preds = %36, %5
  %38 = load ptr, ptr %13, align 8
  %39 = icmp ne ptr %38, null
  br i1 %39, label %40, label %45

40:                                               ; preds = %37
  %41 = load ptr, ptr %6, align 8
  %42 = load ptr, ptr %8, align 8
  %43 = load ptr, ptr %9, align 8
  %44 = load ptr, ptr %13, align 8
  call void @pnio_ar_info(ptr noundef %41, ptr noundef %42, ptr noundef %43, ptr noundef %44)
  br label %45

45:                                               ; preds = %40, %37
  %46 = load i32, ptr %7, align 4
  ret i32 %46
}