; Function Attrs: nounwind uwtable
define internal fastcc i32 @dissect_IODWriteRes(ptr noundef %0, i32 noundef %1, ptr noundef %2, ptr noundef %3, ptr noundef %4) unnamed_addr #0 {
  %6 = alloca i16, align 2
  %7 = alloca i32, align 4
  %8 = alloca ptr, align 8
  store i16 0, ptr %6, align 2
  store ptr null, ptr %8, align 8
  %9 = call fastcc i32 @dissect_block(ptr noundef %0, i32 noundef %1, ptr noundef %2, ptr noundef %3, ptr noundef %4, ptr noundef %6, ptr noundef %7, ptr noundef %8)
  %10 = load i16, ptr %6, align 2
  %11 = icmp eq i16 %10, -8128
  br i1 %11, label %.preheader, label %.loopexit

.preheader:                                       ; preds = %5
  %12 = call i32 @tvb_captured_length_remaining(ptr noundef %0, i32 noundef %9) #11
  %13 = icmp sgt i32 %12, 0
  br i1 %13, label %.lr.ph, label %.loopexit

.lr.ph:                                           ; preds = %.preheader, %.lr.ph
  %.116 = phi i32 [ %14, %.lr.ph ], [ %9, %.preheader ]
  %14 = call fastcc i32 @dissect_block(ptr noundef %0, i32 noundef %.116, ptr noundef %2, ptr noundef %3, ptr noundef %4, ptr noundef %6, ptr noundef %7, ptr noundef %8)
  %15 = call i32 @tvb_captured_length_remaining(ptr noundef %0, i32 noundef %14) #11
  %16 = icmp sgt i32 %15, 0
  br i1 %16, label %.lr.ph, label %.loopexit, !llvm.loop !13

.loopexit:                                        ; preds = %.lr.ph, %.preheader, %5
  %.0 = phi i32 [ %9, %5 ], [ %9, %.preheader ], [ %14, %.lr.ph ]
  %17 = load ptr, ptr %8, align 8
  %.not = icmp eq ptr %17, null
  br i1 %.not, label %19, label %18

18:                                               ; preds = %.loopexit
  call fastcc void @pnio_ar_info(ptr noundef %0, ptr noundef %2, ptr noundef %3, ptr noundef %17)
  br label %19

19:                                               ; preds = %18, %.loopexit
  ret i32 %.0
}